target datalayout = "e-m:e-p270:32:32-p271:32:32-p272:64:64-i64:64-i128:128-f80:128-n8:16:32:64-S128"
target triple = "x86_64-pc-linux-gnu"

%struct.XVisualInfo = type { ptr, i64, i32, i32, i32, i64, i64, i64, i32, i32 }
%struct.anon.0 = type { ptr, ptr, i32, i32, i32, i32, ptr, i64, i64, i64, i32, ptr, i32, i32, i32, i32, i32, ptr, i32, i32, ptr, ptr, i32, i64, i64, ptr, ptr, ptr, ptr, i32, ptr, ptr, ptr, i32, i32, ptr, i64, i64, i32, i32, ptr, ptr, i32, ptr }
%struct.Screen = type { ptr, ptr, i64, i32, i32, i32, i32, i32, ptr, i32, ptr, ptr, i64, i64, i64, i32, i32, i32, i32, i64 }

@X11_XGetVisualInfo = external global ptr, align 8
@X11_XFree = external global ptr, align 8
@.str.6 = private unnamed_addr constant [23 x i8] c"SDL_VIDEO_X11_VISUALID\00", align 1
@X11_XMatchVisualInfo = external global ptr, align 8

; Function Attrs: nounwind uwtable
define internal zeroext i1 @get_visualinfo(ptr noundef %0, i32 noundef %1, ptr noundef %2) #0 {
  %4 = alloca i1, align 1
  %5 = alloca ptr, align 8
  %6 = alloca i32, align 4
  %7 = alloca ptr, align 8
  %8 = alloca ptr, align 8
  %9 = alloca i32, align 4
  %10 = alloca ptr, align 8
  %11 = alloca %struct.XVisualInfo, align 8
  %12 = alloca i32, align 4
  %13 = alloca i32, align 4
  store ptr %0, ptr %5, align 8
  store i32 %1, ptr %6, align 4
  store ptr %2, ptr %7, align 8
  call void @llvm.lifetime.start.p0(i64 8, ptr %8) #6
  %14 = call ptr @SDL_GetHint_REAL(ptr noundef @.str.6)
  store ptr %14, ptr %8, align 8
  call void @llvm.lifetime.start.p0(i64 4, ptr %9) #6
  %15 = load ptr, ptr %8, align 8
  %16 = icmp ne ptr %15, null
  br i1 %16, label %17, label %41

17:                                               ; preds = %3
  %18 = load ptr, ptr %8, align 8
  %19 = load i8, ptr %18, align 1
  %20 = sext i8 %19 to i32
  %21 = icmp ne i32 %20, 0
  br i1 %21, label %22, label %41

22:                                               ; preds = %17
  call void @llvm.lifetime.start.p0(i64 8, ptr %10) #6
  call void @llvm.lifetime.start.p0(i64 64, ptr %11) #6
  call void @llvm.lifetime.start.p0(i64 4, ptr %12) #6
  call void @llvm.memset.p0.i64(ptr align 8 %11, i8 0, i64 64, i1 false)
  %23 = load ptr, ptr %8, align 8
  %24 = call i64 @SDL_strtol_REAL(ptr noundef %23, ptr noundef null, i32 noundef 0)
  %25 = getelementptr inbounds nuw %struct.XVisualInfo, ptr %11, i32 0, i32 1
  store i64 %24, ptr %25, align 8
  %26 = load ptr, ptr @X11_XGetVisualInfo, align 8
  %27 = load ptr, ptr %5, align 8
  %28 = call ptr %26(ptr noundef %27, i64 noundef 1, ptr noundef %11, ptr noundef %12)
  store ptr %28, ptr %10, align 8
  %29 = load ptr, ptr %10, align 8
  %30 = icmp ne ptr %29, null
  br i1 %30, label %31, label %37

31:                                               ; preds = %22
  %32 = load ptr, ptr %7, align 8
  %33 = load ptr, ptr %10, align 8
  call void @llvm.memcpy.p0.p0.i64(ptr align 8 %32, ptr align 8 %33, i64 64, i1 false)
  %34 = load ptr, ptr @X11_XFree, align 8
  %35 = load ptr, ptr %10, align 8
  %36 = call i32 %34(ptr noundef %35)
  store i1 true, ptr %4, align 1
  store i32 1, ptr %13, align 4
  br label %38

37:                                               ; preds = %22
  store i32 0, ptr %13, align 4
  br label %38

38:                                               ; preds = %37, %31
  call void @llvm.lifetime.end.p0(i64 4, ptr %12) #6
  call void @llvm.lifetime.end.p0(i64 64, ptr %11) #6
  call void @llvm.lifetime.end.p0(i64 8, ptr %10) #6
  %39 = load i32, ptr %13, align 4
  switch i32 %39, label %85 [
    i32 0, label %40
  ]

40:                                               ; preds = %38
  br label %41

41:                                               ; preds = %40, %17, %3
  %42 = load ptr, ptr %5, align 8
  %43 = getelementptr inbounds nuw %struct.anon.0, ptr %42, i32 0, i32 35
  %44 = load ptr, ptr %43, align 8
  %45 = load i32, ptr %6, align 4
  %46 = sext i32 %45 to i64
  %47 = getelementptr inbounds %struct.Screen, ptr %44, i64 %46
  %48 = getelementptr inbounds nuw %struct.Screen, ptr %47, i32 0, i32 9
  %49 = load i32, ptr %48, align 8
  store i32 %49, ptr %9, align 4
  %50 = call zeroext i1 @X11_UseDirectColorVisuals()
  br i1 %50, label %51, label %59

51:                                               ; preds = %41
  %52 = load ptr, ptr @X11_XMatchVisualInfo, align 8
  %53 = load ptr, ptr %5, align 8
  %54 = load i32, ptr %6, align 4
  %55 = load i32, ptr %9, align 4
  %56 = load ptr, ptr %7, align 8
  %57 = call i32 %52(ptr noundef %53, i32 noundef %54, i32 noundef %55, i32 noundef 5, ptr noundef %56)
  %58 = icmp ne i32 %57, 0
  br i1 %58, label %83, label %59

59:                                               ; preds = %51, %41
  %60 = load ptr, ptr @X11_XMatchVisualInfo, align 8
  %61 = load ptr, ptr %5, align 8
  %62 = load i32, ptr %6, align 4
  %63 = load i32, ptr %9, align 4
  %64 = load ptr, ptr %7, align 8
  %65 = call i32 %60(ptr noundef %61, i32 noundef %62, i32 noundef %63, i32 noundef 4, ptr noundef %64)
  %66 = icmp ne i32 %65, 0
  br i1 %66, label %83, label %67

67:                                               ; preds = %59
  %68 = load ptr, ptr @X11_XMatchVisualInfo, align 8
  %69 = load ptr, ptr %5, align 8
  %70 = load i32, ptr %6, align 4
  %71 = load i32, ptr %9, align 4
  %72 = load ptr, ptr %7, align 8
  %73 = call i32 %68(ptr noundef %69, i32 noundef %70, i32 noundef %71, i32 noundef 3, ptr noundef %72)
  %74 = icmp ne i32 %73, 0
  br i1 %74, label %83, label %75

75:                                               ; preds = %67
  %76 = load ptr, ptr @X11_XMatchVisualInfo, align 8
  %77 = load ptr, ptr %5, align 8
  %78 = load i32, ptr %6, align 4
  %79 = load i32, ptr %9, align 4
  %80 = load ptr, ptr %7, align 8
  %81 = call i32 %76(ptr noundef %77, i32 noundef %78, i32 noundef %79, i32 noundef 2, ptr noundef %80)
  %82 = icmp ne i32 %81, 0
  br i1 %82, label %83, label %84

83:                                               ; preds = %75, %67, %59, %51
  store i1 true, ptr %4, align 1
  store i32 1, ptr %13, align 4
  br label %85

84:                                               ; preds = %75
  store i1 false, ptr %4, align 1
  store i32 1, ptr %13, align 4
  br label %85

85:                                               ; preds = %84, %83, %38
  call void @llvm.lifetime.end.p0(i64 4, ptr %9) #6
  call void @llvm.lifetime.end.p0(i64 8, ptr %8) #6
  %86 = load i1, ptr %4, align 1
  ret i1 %86
}