; Function Attrs: nounwind uwtable
define internal fastcc zeroext i1 @get_visualinfo(ptr noundef %0, i32 noundef %1, ptr noundef nonnull %2) unnamed_addr #0 {
  %4 = alloca %struct.XVisualInfo, align 8
  %5 = alloca i32, align 4
  %6 = tail call ptr @SDL_GetHint_REAL(ptr noundef nonnull @.str.6) #8
  %.not = icmp eq ptr %6, null
  br i1 %.not, label %17, label %7

7:                                                ; preds = %3
  %8 = load i8, ptr %6, align 1
  %.not30 = icmp eq i8 %8, 0
  br i1 %.not30, label %17, label %9

9:                                                ; preds = %7
  call void @llvm.lifetime.start.p0(i64 64, ptr nonnull %4) #8
  call void @llvm.lifetime.start.p0(i64 4, ptr nonnull %5) #8
  call void @llvm.memset.p0.i64(ptr noundef nonnull align 8 dereferenceable(64) %4, i8 0, i64 64, i1 false)
  %10 = tail call i64 @SDL_strtol_REAL(ptr noundef nonnull %6, ptr noundef null, i32 noundef 0) #8
  %11 = getelementptr inbounds nuw i8, ptr %4, i64 8
  store i64 %10, ptr %11, align 8
  %12 = load ptr, ptr @X11_XGetVisualInfo, align 8
  %13 = call ptr %12(ptr noundef %0, i64 noundef 1, ptr noundef nonnull %4, ptr noundef nonnull %5) #8
  %.not31 = icmp eq ptr %13, null
  br i1 %.not31, label %.critedge, label %14

14:                                               ; preds = %9
  call void @llvm.memcpy.p0.p0.i64(ptr noundef nonnull align 8 dereferenceable(64) %2, ptr noundef nonnull align 8 dereferenceable(64) %13, i64 64, i1 false)
  %15 = load ptr, ptr @X11_XFree, align 8
  %16 = call i32 %15(ptr noundef nonnull %13) #8
  call void @llvm.lifetime.end.p0(i64 4, ptr nonnull %5) #8
  call void @llvm.lifetime.end.p0(i64 64, ptr nonnull %4) #8
  br label %36

.critedge:                                        ; preds = %9
  call void @llvm.lifetime.end.p0(i64 4, ptr nonnull %5) #8
  call void @llvm.lifetime.end.p0(i64 64, ptr nonnull %4) #8
  br label %17

17:                                               ; preds = %.critedge, %7, %3
  %18 = getelementptr inbounds nuw i8, ptr %0, i64 232
  %19 = load ptr, ptr %18, align 8
  %20 = sext i32 %1 to i64
  %21 = getelementptr inbounds %struct.Screen, ptr %19, i64 %20, i32 9
  %22 = load i32, ptr %21, align 8
  %23 = call zeroext i1 @X11_UseDirectColorVisuals() #8
  br i1 %23, label %24, label %27

24:                                               ; preds = %17
  %25 = load ptr, ptr @X11_XMatchVisualInfo, align 8
  %26 = call i32 %25(ptr noundef nonnull %0, i32 noundef %1, i32 noundef %22, i32 noundef 5, ptr noundef nonnull %2) #8
  %.not32 = icmp eq i32 %26, 0
  br i1 %.not32, label %27, label %36

27:                                               ; preds = %24, %17
  %28 = load ptr, ptr @X11_XMatchVisualInfo, align 8
  %29 = call i32 %28(ptr noundef nonnull %0, i32 noundef %1, i32 noundef %22, i32 noundef 4, ptr noundef nonnull %2) #8
  %.not33 = icmp eq i32 %29, 0
  br i1 %.not33, label %30, label %36

30:                                               ; preds = %27
  %31 = load ptr, ptr @X11_XMatchVisualInfo, align 8
  %32 = call i32 %31(ptr noundef nonnull %0, i32 noundef %1, i32 noundef %22, i32 noundef 3, ptr noundef nonnull %2) #8
  %.not34 = icmp eq i32 %32, 0
  br i1 %.not34, label %33, label %36

33:                                               ; preds = %30
  %34 = load ptr, ptr @X11_XMatchVisualInfo, align 8
  %35 = call i32 %34(ptr noundef nonnull %0, i32 noundef %1, i32 noundef %22, i32 noundef 2, ptr noundef nonnull %2) #8
  %.not35 = icmp ne i32 %35, 0
  br label %36

36:                                               ; preds = %33, %14, %24, %27, %30
  %.1 = phi i1 [ true, %14 ], [ true, %30 ], [ true, %27 ], [ true, %24 ], [ %.not35, %33 ]
  ret i1 %.1
}